target datalayout = "e-m:e-p270:32:32-p271:32:32-p272:64:64-i64:64-i128:128-f80:128-n8:16:32:64-S128"
target triple = "x86_64-unknown-linux-gnu"

%"class.icu_75::GNameSearchHandler" = type <{ %"class.icu_75::TextTrieMapSearchResultHandler", i32, [4 x i8], ptr, i32, [4 x i8] }>
%"class.icu_75::TextTrieMapSearchResultHandler" = type { ptr }

@_ZTVN6icu_7530TextTrieMapSearchResultHandlerE = external unnamed_addr constant { [5 x ptr] }, align 8

; Function Attrs: mustprogress nounwind uwtable
define linkonce_odr void @_ZN6icu_7530TextTrieMapSearchResultHandlerC2Ev(ptr noundef nonnull align 8 dereferenceable(8) %this) unnamed_addr #0 comdat align 2 {
entry:
  %this.addr = alloca ptr, align 8
  store ptr %this, ptr %this.addr, align 8
  %this1 = load ptr, ptr %this.addr, align 8
  store ptr getelementptr inbounds ({ [5 x ptr] }, ptr @_ZTVN6icu_7530TextTrieMapSearchResultHandlerE, i32 0, i32 0, i32 2), ptr %this1, align 8
  ret void
}

; Function Attrs: mustprogress nounwind uwtable
define void @_ZN6icu_7518GNameSearchHandlerC2Ej(ptr noundef nonnull align 8 dereferenceable(28) %this, i32 noundef %types) unnamed_addr #0 align 2 {
entry:
  %this.addr = alloca ptr, align 8
  %types.addr = alloca i32, align 4
  store ptr %this, ptr %this.addr, align 8
  store i32 %types, ptr %types.addr, align 4
  %this1 = load ptr, ptr %this.addr, align 8
  call void @_ZN6icu_7530TextTrieMapSearchResultHandlerC2Ev(ptr noundef nonnull align 8 dereferenceable(8) %this1) #9
  store ptr getelementptr inbounds ({ [5 x ptr] }, ptr @_ZTVN6icu_7518GNameSearchHandlerE, i32 0, i32 0, i32 2), ptr %this1, align 8
  %fTypes = getelementptr inbounds %"class.icu_75::GNameSearchHandler", ptr %this1, i32 0, i32 1
  %0 = load i32, ptr %types.addr, align 4
  store i32 %0, ptr %fTypes, align 8
  %fResults = getelementptr inbounds %"class.icu_75::GNameSearchHandler", ptr %this1, i32 0, i32 3
  store ptr null, ptr %fResults, align 8
  %fMaxMatchLen = getelementptr inbounds %"class.icu_75::GNameSearchHandler", ptr %this1, i32 0, i32 4
  store i32 0, ptr %fMaxMatchLen, align 8
  ret void
}