; Function Attrs: mustprogress nofree norecurse nosync nounwind willreturn memory(argmem: write) uwtable
define void @_ZN6icu_7518GNameSearchHandlerC2Ej(ptr nocapture noundef nonnull writeonly align 8 dereferenceable(28) %this, i32 noundef %types) unnamed_addr #6 align 2 {
entry:
  store ptr getelementptr inbounds ({ [5 x ptr] }, ptr @_ZTVN6icu_7518GNameSearchHandlerE, i64 0, i32 0, i64 2), ptr %this, align 8
  %fTypes = getelementptr inbounds i8, ptr %this, i64 8
  store i32 %types, ptr %fTypes, align 8
  %fResults = getelementptr inbounds i8, ptr %this, i64 16
  store ptr null, ptr %fResults, align 8
  %fMaxMatchLen = getelementptr inbounds i8, ptr %this, i64 24
  store i32 0, ptr %fMaxMatchLen, align 8
  ret void
}